(lp0
(dp1
Vdomain
p2
V.adnxs.com
p3
sVsecure
p4
I00
sVvalue
p5
V1
p6
sVexpiry
p7
F1482016423.406463
sVpath
p8
V/
p9
sVhttpOnly
p10
I01
sVname
p11
Vsess
p12
sa(dp13
Vdomain
p14
V.twitter.com
p15
sVsecure
p16
I00
sVvalue
p17
V"v3:1481930024632422422655249"
p18
sVexpiry
p19
F1529190824.320784
sVpath
p20
g9
sVhttpOnly
p21
I00
sVname
p22
Vpid
p23
sa(dp24
Vdomain
p25
V.s.thebrighttag.com
p26
sVsecure
p27
I00
sVvalue
p28
VSQUVvvY--lNHkMfPnoowLbS4fQSdhNDYSVEOw5tIsU0-bmgTMve5dL3hMYAa0RHr
p29
sVexpiry
p30
F1513466023.596214
sVpath
p31
g9
sVhttpOnly
p32
I00
sVname
p33
Vbt3
p34
sa(dp35
Vdomain
p36
Vs.thebrighttag.com
p37
sVsecure
p38
I00
sVvalue
p39
VNTU0NTc2MTE3MTY3MTM4MzkyNw
p40
sVexpiry
p41
F1513466022.741325
sVpath
p42
g9
sVhttpOnly
p43
I00
sVname
p44
Vbtpdb.QIXnMuB.dXNlciBpZCA6OiBzaWduYWwgdGhpcmQgcGFydHkgaWQ
p45
sa(dp46
Vdomain
p47
V.doubleclick.net
p48
sVsecure
p49
I00
sVvalue
p50
V22e1a4ca450e002e||t=1481930021|et=730|cs=002213fd482fcb86f5b27a092a
p51
sVexpiry
p52
F1545002022.153
sVpath
p53
g9
sVhttpOnly
p54
I00
sVname
p55
Vid
p56
sa(dp57
Vdomain
p58
V.doubleclick.net
p59
sVsecure
p60
I00
sVvalue
p61
VAHWqTUn0k4PhUAOZ47YUVA1EpMeA8gr6r6j948sDS5vZCBEEMA2z9tEGOA
p62
sVexpiry
p63
F1545002022.153977
sVpath
p64
g9
sVhttpOnly
p65
I01
sVname
p66
VIDE
p67
sa(dp68
Vdomain
p69
V.ru4.com
p70
sVname
p71
VTMP_X1ID
p72
sVvalue
p73
VEZ-00000001863393179
p74
sVpath
p75
g9
sVhttpOnly
p76
I00
sVsecure
p77
I00
sa(dp78
Vdomain
p79
Vwww.easports.com
p80
sVname
p81
VXSRF-TOKEN
p82
sVvalue
p83
VZQgLAX3qElYJBgvwEWfcbb3fxc0iWOWLFbkvDUQTxrU
p84
sVpath
p85
g9
sVhttpOnly
p86
I00
sVsecure
p87
I00
sa(dp88
Vdomain
p89
Vwww.easports.com
p90
sVname
p91
Vfutweb
p92
sVvalue
p93
Vhln23mqq1pik91sg43hafuj9f3
p94
sVpath
p95
V/iframe/fut17
p96
sVhttpOnly
p97
I01
sVsecure
p98
I00
sa(dp99
Vdomain
p100
V.easports.com
p101
sVsecure
p102
I00
sVvalue
p103
V242180630.1481930026.1.1.utmcsr=(direct)|utmccn=(direct)|utmcmd=(none)
p104
sVexpiry
p105
I1497698062
sVpath
p106
g9
sVhttpOnly
p107
I00
sVname
p108
V__utmz
p109
sa(dp110
Vdomain
p111
V.easports.com
p112
sVname
p113
V__utmc
p114
sVvalue
p115
V242180630
p116
sVpath
p117
g9
sVhttpOnly
p118
I00
sVsecure
p119
I00
sa(dp120
Vdomain
p121
V.easports.com
p122
sVsecure
p123
I00
sVvalue
p124
V242180630.3.10.1481930026
p125
sVexpiry
p126
I1481931862
sVpath
p127
g9
sVhttpOnly
p128
I00
sVname
p129
V__utmb
p130
sa(dp131
Vdomain
p132
V.facebook.com
p133
sVsecure
p134
I00
sVvalue
p135
V0IPOlP1vejpaAWkgj..BYVHUn...1.0.BYVHUn.
p136
sVexpiry
p137
F1489706023.4667509
sVpath
p138
g9
sVhttpOnly
p139
I00
sVname
p140
Vfr
p141
sa(dp142
Vdomain
p143
V.easports.com
p144
sVsecure
p145
I00
sVvalue
p146
V6044658295273248603
p147
sVexpiry
p148
F1484522053.116687
sVpath
p149
g9
sVhttpOnly
p150
I00
sVname
p151
VFUTWebPhishing-835097051
p152
sa(dp153
Vdomain
p154
V.ru4.com
p155
sVsecure
p156
I00
sVvalue
p157
g6
sVexpiry
p158
F1484590422.323447
sVpath
p159
g9
sVhttpOnly
p160
I00
sVname
p161
VM62795-37246968
p162
sa(dp163
Vdomain
p164
V.easports.com
p165
sVsecure
p166
I00
sVvalue
p167
V242180630.1141996550.1481930023.1481930026.1481930026.1
p168
sVexpiry
p169
I1545002062
sVpath
p170
g9
sVhttpOnly
p171
I00
sVname
p172
V__utma
p173
sa(dp174
Vdomain
p175
V.easports.com
p176
sVsecure
p177
I00
sVvalue
p178
Voiawiv
p179
sVexpiry
p180
I1489640400
sVpath
p181
g9
sVhttpOnly
p182
I00
sVname
p183
V_ceg.u
p184
sa(dp185
Vdomain
p186
V.s.thebrighttag.com
p187
sVsecure
p188
I00
sVvalue
p189
V6lm25qmk25pC4338_kl0xrveOrHgCZYkeG8mLi8G8OqidGz_XL8p_rBFHK7a7ZwNdCfdaGlWdndC_yC7z3NjZg
p190
sVexpiry
p191
F1484522023.596475
sVpath
p192
g9
sVhttpOnly
p193
I00
sVname
p194
Vbtv3.gcms
p195
sa(dp196
Vdomain
p197
V.easports.com
p198
sVsecure
p199
I00
sVvalue
p200
g6
sVexpiry
p201
I1481930623
sVpath
p202
g9
sVhttpOnly
p203
I00
sVname
p204
V_gat_ea_di
p205
sa(dp206
Vdomain
p207
V.easports.com
p208
sVsecure
p209
I00
sVvalue
p210
Voiawiv
p211
sVexpiry
p212
I1489640400
sVpath
p213
g9
sVhttpOnly
p214
I00
sVname
p215
V_ceg.s
p216
sa(dp217
Vdomain
p218
V.twitter.com
p219
sVsecure
p220
I00
sVvalue
p221
Vv1%3A148193002745941498
p222
sVexpiry
p223
F1545002027.50311
sVpath
p224
g9
sVhttpOnly
p225
I00
sVname
p226
Vguest_id
p227
sa(dp228
Vdomain
p229
V.easports.com
p230
sVsecure
p231
I00
sVvalue
p232
g6
sVexpiry
p233
I1481930662
sVpath
p234
g9
sVhttpOnly
p235
I00
sVname
p236
V__utmt_~1
p237
sa(dp238
Vdomain
p239
V.easports.com
p240
sVsecure
p241
I00
sVvalue
p242
g6
sVexpiry
p243
I1481930629
sVpath
p244
g9
sVhttpOnly
p245
I00
sVname
p246
V__utmt
p247
sa(dp248
Vdomain
p249
V.easports.com
p250
sVsecure
p251
I00
sVvalue
p252
VGA1.2.1141996550.1481930023
p253
sVexpiry
p254
I1545002023
sVpath
p255
g9
sVhttpOnly
p256
I00
sVname
p257
V_ga
p258
sa(dp259
Vdomain
p260
V.ru4.com
p261
sVsecure
p262
I00
sVvalue
p263
VEZ-00000001863393179
p264
sVexpiry
p265
F1529172823.390407
sVpath
p266
g9
sVhttpOnly
p267
I00
sVname
p268
VX1ID
p269
sa(dp270
Vdomain
p271
V.easports.com
p272
sVsecure
p273
I00
sVvalue
p274
Voeu1481930022363r0.3301935802577407
p275
sVexpiry
p276
I1797290022
sVpath
p277
g9
sVhttpOnly
p278
I00
sVname
p279
VoptimizelyEndUserId
p280
sa(dp281
Vdomain
p282
V.easports.com
p283
sVsecure
p284
I00
sVvalue
p285
V%7B%7D
p286
sVexpiry
p287
I1797290022
sVpath
p288
g9
sVhttpOnly
p289
I00
sVname
p290
VoptimizelyBuckets
p291
sa(dp292
Vdomain
p293
Vwww.easports.com
p294
sVsecure
p295
I00
sVvalue
p296
V4597e6bcedfabf751193266ca84e2f2ef1ba152e635d0d8b313f662e3dd8e8f6
p297
sVexpiry
p298
F1482102820.022455
sVpath
p299
g9
sVhttpOnly
p300
I00
sVname
p301
VEASSSO
p302
sa(dp303
Vdomain
p304
V.ru4.com
p305
sVsecure
p306
I00
sVvalue
p307
g6
sVexpiry
p308
F1484590422.323901
sVpath
p309
g9
sVhttpOnly
p310
I00
sVname
p311
VM62795-37036736
p312
sa(dp313
Vdomain
p314
Vwww.easports.com
p315
sVsecure
p316
I00
sVvalue
p317
V1djnqbrl236vplv9s7et1vgke4
p318
sVexpiry
p319
F1482016416.095738
sVpath
p320
g9
sVhttpOnly
p321
I01
sVname
p322
VEASFC-WEB-SESSION
p323
sa(dp324
Vdomain
p325
V.easports.com
p326
sVsecure
p327
I00
sVvalue
p328
V%7B%22172174479%22%3A%22none%22%2C%22172202804%22%3A%22direct%22%2C%22172207507%22%3A%22false%22%2C%22172316047%22%3A%22gc%22%2C%22265568016%22%3A%22true%22%7D
p329
sVexpiry
p330
I1797290022
sVpath
p331
g9
sVhttpOnly
p332
I00
sVname
p333
VoptimizelySegments
p334
sa(dp335
Vdomain
p336
V.easports.com
p337
sVsecure
p338
I00
sVvalue
p339
Vv_id:015909e999060012de758a4ae15d0507800330700093c$_sn:1$_ss:1$_pn:1%3Bexp-session$_st:1481931821126$ses_id:1481930021126%3Bexp-session
p340
sVexpiry
p341
I1513466021
sVpath
p342
g9
sVhttpOnly
p343
I00
sVname
p344
Vutag_main
p345
sa(dp346
Vdomain
p347
Vwww.easports.com
p348
sVsecure
p349
I00
sVvalue
p350
g6
sVexpiry
p351
F1482102820.022256
sVpath
p352
g9
sVhttpOnly
p353
I00
sVname
p354
V6c60bdcf
p355
sa(dp356
Vdomain
p357
Vwww.easports.com
p358
sVsecure
p359
I00
sVvalue
p360
Vus
p361
sVexpiry
p362
F1513465979.600558
sVpath
p363
g9
sVhttpOnly
p364
I00
sVname
p365
Vhl
p366
sa.