(lp0
(dp1
Vdomain
p2
V.adnxs.com
p3
sVsecure
p4
I00
sVvalue
p5
V1
p6
sVexpiry
p7
F1481518852.290438
sVpath
p8
V/
p9
sVhttpOnly
p10
I01
sVname
p11
Vsess
p12
sa(dp13
Vdomain
p14
V.s.thebrighttag.com
p15
sVsecure
p16
I00
sVvalue
p17
VKStqgBDTAjXCogVE--rHcjz1k8e-ipS02ZKugTfYZQtpbp4Sn43xSQwVkA8E3xg7
p18
sVexpiry
p19
F1512968404.922651
sVpath
p20
g9
sVhttpOnly
p21
I00
sVname
p22
Vbt3
p23
sa(dp24
Vdomain
p25
Vs.thebrighttag.com
p26
sVsecure
p27
I00
sVvalue
p28
VMTM1MTkzODg1NTQ4NTExMDc1OQ
p29
sVexpiry
p30
F1512968402.899929
sVpath
p31
g9
sVhttpOnly
p32
I00
sVname
p33
Vbtpdb.QIXnMuB.dXNlciBpZCA6OiBzaWduYWwgdGhpcmQgcGFydHkgaWQ
p34
sa(dp35
Vdomain
p36
V.ru4.com
p37
sVname
p38
VTMP_X1ID
p39
sVvalue
p40
VCH-00000003064709996
p41
sVpath
p42
g9
sVhttpOnly
p43
I00
sVsecure
p44
I00
sa(dp45
Vdomain
p46
V.doubleclick.net
p47
sVsecure
p48
I00
sVvalue
p49
VAHWqTUl-B0SOMoGYz6Vx9JnUjDj1zo53pIZ1vBgpeQQtRLiIyT9xYp5Zuw
p50
sVexpiry
p51
F1544504402.110373
sVpath
p52
g9
sVhttpOnly
p53
I01
sVname
p54
VIDE
p55
sa(dp56
Vdomain
p57
V.doubleclick.net
p58
sVsecure
p59
I00
sVvalue
p60
V22278ca41d0e006e||t=1481432402|et=730|cs=002213fd48d90dd6efd9c16f82
p61
sVexpiry
p62
F1544504402.109159
sVpath
p63
g9
sVhttpOnly
p64
I00
sVname
p65
Vid
p66
sa(dp67
Vdomain
p68
V.twitter.com
p69
sVsecure
p70
I00
sVvalue
p71
V"v3:1481432452596473674690767"
p72
sVexpiry
p73
F1528693252.052464
sVpath
p74
g9
sVhttpOnly
p75
I00
sVname
p76
Vpid
p77
sa(dp78
Vdomain
p79
V.facebook.com
p80
sVsecure
p81
I00
sVvalue
p82
V007CYm45k8TR7S82C..BYTN1S...1.0.BYTN1S.
p83
sVexpiry
p84
F1489208402.819672
sVpath
p85
g9
sVhttpOnly
p86
I00
sVname
p87
Vfr
p88
sa(dp89
Vdomain
p90
Vwww.easports.com
p91
sVname
p92
VXSRF-TOKEN
p93
sVvalue
p94
VOI85ta_xWB32jslVHmmusuxjQQS4LTlnZGEGMY84TF4
p95
sVpath
p96
g9
sVhttpOnly
p97
I00
sVsecure
p98
I00
sa(dp99
Vdomain
p100
Vwww.easports.com
p101
sVname
p102
Vfutweb
p103
sVvalue
p104
Vnjl8u96eqnrncphjtv4fbllbp7
p105
sVpath
p106
V/iframe/fut17
p107
sVhttpOnly
p108
I01
sVsecure
p109
I00
sa(dp110
Vdomain
p111
V.easports.com
p112
sVsecure
p113
I00
sVvalue
p114
V242180630.1481432455.1.1.utmcsr=(direct)|utmccn=(direct)|utmcmd=(none)
p115
sVexpiry
p116
I1497200458
sVpath
p117
g9
sVhttpOnly
p118
I00
sVname
p119
V__utmz
p120
sa(dp121
Vdomain
p122
Vwww.easports.com
p123
sVsecure
p124
I00
sVvalue
p125
g6
sVexpiry
p126
F1481605251.370025
sVpath
p127
g9
sVhttpOnly
p128
I00
sVname
p129
Vd17357fb
p130
sa(dp131
Vdomain
p132
V.easports.com
p133
sVname
p134
V__utmc
p135
sVvalue
p136
V242180630
p137
sVpath
p138
g9
sVhttpOnly
p139
I00
sVsecure
p140
I00
sa(dp141
Vdomain
p142
V.ru4.com
p143
sVsecure
p144
I00
sVvalue
p145
g6
sVexpiry
p146
F1484092851.397619
sVpath
p147
g9
sVhttpOnly
p148
I00
sVname
p149
VM62795-37246968
p150
sa(dp151
Vdomain
p152
V.easports.com
p153
sVsecure
p154
I00
sVvalue
p155
V242180630.370111212.1481432403.1481432455.1481432455.1
p156
sVexpiry
p157
I1544504458
sVpath
p158
g9
sVhttpOnly
p159
I00
sVname
p160
V__utma
p161
sa(dp162
Vdomain
p163
V.easports.com
p164
sVsecure
p165
I00
sVvalue
p166
Voi08lg
p167
sVexpiry
p168
I1489125600
sVpath
p169
g9
sVhttpOnly
p170
I00
sVname
p171
V_ceg.u
p172
sa(dp173
Vdomain
p174
V.s.thebrighttag.com
p175
sVsecure
p176
I00
sVvalue
p177
VOq8REv3-4YUZmJvLaJB3Kx9bBT4QkJ9K8uJ_4m4LXDbxQWj-S3JRGiMXf1jjXL2HdCfdaGlWdndC_yC7z3NjZg
p178
sVexpiry
p179
F1484024404.923707
sVpath
p180
g9
sVhttpOnly
p181
I00
sVname
p182
Vbtv3.gcms
p183
sa(dp184
Vdomain
p185
V.easports.com
p186
sVsecure
p187
I00
sVvalue
p188
g6
sVexpiry
p189
I1481433002
sVpath
p190
g9
sVhttpOnly
p191
I00
sVname
p192
V_gat_ea_di
p193
sa(dp194
Vdomain
p195
V.easports.com
p196
sVsecure
p197
I00
sVvalue
p198
Voi08lg
p199
sVexpiry
p200
I1489125600
sVpath
p201
g9
sVhttpOnly
p202
I00
sVname
p203
V_ceg.s
p204
sa(dp205
Vdomain
p206
V.easports.com
p207
sVsecure
p208
I00
sVvalue
p209
V242180630.1.10.1481432455
p210
sVexpiry
p211
I1481434258
sVpath
p212
g9
sVhttpOnly
p213
I00
sVname
p214
V__utmb
p215
sa(dp216
Vdomain
p217
V.twitter.com
p218
sVsecure
p219
I00
sVvalue
p220
Vv1%3A148143245643826780
p221
sVexpiry
p222
F1544504456.634197
sVpath
p223
g9
sVhttpOnly
p224
I00
sVname
p225
Vguest_id
p226
sa(dp227
Vdomain
p228
V.easports.com
p229
sVsecure
p230
I00
sVvalue
p231
V%7B%7D
p232
sVexpiry
p233
I1796792450
sVpath
p234
g9
sVhttpOnly
p235
I00
sVname
p236
VoptimizelyBuckets
p237
sa(dp238
Vdomain
p239
Vwww.easports.com
p240
sVsecure
p241
I00
sVvalue
p242
Vd4bedcada0e7f4d2a2f5f175a6a4d23b536d921ac030531f46ac3d5320221205
p243
sVexpiry
p244
F1481605251.370666
sVpath
p245
g9
sVhttpOnly
p246
I00
sVname
p247
VEASSSO
p248
sa(dp249
Vdomain
p250
V.ru4.com
p251
sVsecure
p252
I00
sVvalue
p253
VCH-00000003064709996
p254
sVexpiry
p255
F1528675251.681954
sVpath
p256
g9
sVhttpOnly
p257
I00
sVname
p258
VX1ID
p259
sa(dp260
Vdomain
p261
V.easports.com
p262
sVsecure
p263
I00
sVvalue
p264
Voeu1481432402828r0.23186584727089854
p265
sVexpiry
p266
I1796792450
sVpath
p267
g9
sVhttpOnly
p268
I00
sVname
p269
VoptimizelyEndUserId
p270
sa(dp271
Vdomain
p272
V.easports.com
p273
sVsecure
p274
I00
sVvalue
p275
g6
sVexpiry
p276
I1481433058
sVpath
p277
g9
sVhttpOnly
p278
I00
sVname
p279
V__utmt
p280
sa(dp281
Vdomain
p282
V.easports.com
p283
sVsecure
p284
I00
sVvalue
p285
VGA1.2.370111212.1481432403
p286
sVexpiry
p287
I1544504450
sVpath
p288
g9
sVhttpOnly
p289
I00
sVname
p290
V_ga
p291
sa(dp292
Vdomain
p293
Vwww.easports.com
p294
sVsecure
p295
I00
sVvalue
p296
Vus
p297
sVexpiry
p298
F1512968408.006196
sVpath
p299
g9
sVhttpOnly
p300
I00
sVname
p301
Vhl
p302
sa(dp303
Vdomain
p304
V.ru4.com
p305
sVsecure
p306
I00
sVvalue
p307
g6
sVexpiry
p308
F1484092851.397702
sVpath
p309
g9
sVhttpOnly
p310
I00
sVname
p311
VM62795-37036736
p312
sa(dp313
Vdomain
p314
Vwww.easports.com
p315
sVsecure
p316
I00
sVvalue
p317
V7p69u92u4fag7up3olecnms241
p318
sVexpiry
p319
F1481518846.569243
sVpath
p320
g9
sVhttpOnly
p321
I01
sVname
p322
VEASFC-WEB-SESSION
p323
sa(dp324
Vdomain
p325
V.easports.com
p326
sVsecure
p327
I00
sVvalue
p328
V%7B%22172174479%22%3A%22none%22%2C%22172202804%22%3A%22direct%22%2C%22172207507%22%3A%22false%22%2C%22172316047%22%3A%22gc%22%2C%22265568016%22%3A%22true%22%7D
p329
sVexpiry
p330
I1796792450
sVpath
p331
g9
sVhttpOnly
p332
I00
sVname
p333
VoptimizelySegments
p334
sa(dp335
Vdomain
p336
V.easports.com
p337
sVsecure
p338
I00
sVvalue
p339
Vv_id:0158ec4084150043be924524975c0507800190700093c$_sn:1$_ss:0$_pn:2%3Bexp-session$_st:1481434250618$ses_id:1481432400917%3Bexp-session
p340
sVexpiry
p341
I1512968450
sVpath
p342
g9
sVhttpOnly
p343
I00
sVname
p344
Vutag_main
p345
sa(dp346
Vdomain
p347
Vwww.easports.com
p348
sVname
p349
VDOT_COM_PHPSESSID
p350
sVvalue
p351
V4ttcjekaljnea09uenia5kcn30
p352
sVpath
p353
g9
sVhttpOnly
p354
I00
sVsecure
p355
I00
sa.