(lp0
(dp1
Vdomain
p2
V.adnxs.com
p3
sVsecure
p4
I00
sVvalue
p5
V1
p6
sVexpiry
p7
F1482217289.752207
sVpath
p8
V/
p9
sVhttpOnly
p10
I01
sVname
p11
Vsess
p12
sa(dp13
Vdomain
p14
V.twitter.com
p15
sVsecure
p16
I00
sVvalue
p17
V"v3:1482130888303794408303792"
p18
sVexpiry
p19
F1529391688.851241
sVpath
p20
g9
sVhttpOnly
p21
I00
sVname
p22
Vpid
p23
sa(dp24
Vdomain
p25
V.s.thebrighttag.com
p26
sVsecure
p27
I00
sVvalue
p28
VPisNXUrxx7tNLkSFAN_cDk64vYnQO9buDvMjscCL704pi8KeMe0XorYTA1F46Z15
p29
sVexpiry
p30
F1513666891.385184
sVpath
p31
g9
sVhttpOnly
p32
I00
sVname
p33
Vbt3
p34
sa(dp35
Vdomain
p36
Vs.thebrighttag.com
p37
sVsecure
p38
I00
sVvalue
p39
VNjQ2OTkyNDkzMDAzMDY2OTY3Ng
p40
sVexpiry
p41
F1513666887.7872
sVpath
p42
g9
sVhttpOnly
p43
I00
sVname
p44
Vbtpdb.QIXnMuB.dXNlciBpZCA6OiBzaWduYWwgdGhpcmQgcGFydHkgaWQ
p45
sa(dp46
Vdomain
p47
V.doubleclick.net
p48
sVsecure
p49
I00
sVvalue
p50
V22ec98b44d0e0019||t=1482130887|et=730|cs=002213fd48791669cd7f2b8202
p51
sVexpiry
p52
F1545202887.209406
sVpath
p53
g9
sVhttpOnly
p54
I00
sVname
p55
Vid
p56
sa(dp57
Vdomain
p58
V.doubleclick.net
p59
sVsecure
p60
I00
sVvalue
p61
VAHWqTUnNLdAy5M4Y0WG12ZbZ9wEIRm-1zXTDS7eKs1fhO8ij6jND4pfhww
p62
sVexpiry
p63
F1545202887.210898
sVpath
p64
g9
sVhttpOnly
p65
I01
sVname
p66
VIDE
p67
sa(dp68
Vdomain
p69
V.ru4.com
p70
sVname
p71
VTMP_X1ID
p72
sVvalue
p73
VEL-00000001853397947
p74
sVpath
p75
g9
sVhttpOnly
p76
I00
sVsecure
p77
I00
sa(dp78
Vdomain
p79
V.facebook.com
p80
sVsecure
p81
I00
sVvalue
p82
V0Ze6MWrOH3S8aYhvi..BYV4XI...1.0.BYV4XI.
p83
sVexpiry
p84
F1489906888.919473
sVpath
p85
g9
sVhttpOnly
p86
I00
sVname
p87
Vfr
p88
sa(dp89
Vdomain
p90
Vwww.easports.com
p91
sVname
p92
VXSRF-TOKEN
p93
sVvalue
p94
VgpuMj_WeBn4uJMDr1t4fGI0adJfWLfRo6YYsBIoL_aA
p95
sVpath
p96
g9
sVhttpOnly
p97
I00
sVsecure
p98
I00
sa(dp99
Vdomain
p100
V.easports.com
p101
sVsecure
p102
I00
sVvalue
p103
V941846894436797091
p104
sVexpiry
p105
F1484722909.252491
sVpath
p106
g9
sVhttpOnly
p107
I00
sVname
p108
VFUTWebPhishing1747977687
p109
sa(dp110
Vdomain
p111
Vwww.easports.com
p112
sVname
p113
Vfutweb
p114
sVvalue
p115
V0ecdu3dkndbn983vqkm91l7nt0
p116
sVpath
p117
V/iframe/fut17
p118
sVhttpOnly
p119
I01
sVsecure
p120
I00
sa(dp121
Vdomain
p122
V.easports.com
p123
sVsecure
p124
I00
sVvalue
p125
V242180630.1482130891.1.1.utmcsr=(direct)|utmccn=(direct)|utmcmd=(none)
p126
sVexpiry
p127
I1497898918
sVpath
p128
g9
sVhttpOnly
p129
I00
sVname
p130
V__utmz
p131
sa(dp132
Vdomain
p133
V.easports.com
p134
sVsecure
p135
I00
sVvalue
p136
V242180630.2.10.1482130891
p137
sVexpiry
p138
I1482132718
sVpath
p139
g9
sVhttpOnly
p140
I00
sVname
p141
V__utmb
p142
sa(dp143
Vdomain
p144
V.easports.com
p145
sVname
p146
V__utmc
p147
sVvalue
p148
V242180630
p149
sVpath
p150
g9
sVhttpOnly
p151
I00
sVsecure
p152
I00
sa(dp153
Vdomain
p154
V.ru4.com
p155
sVsecure
p156
I00
sVvalue
p157
g6
sVexpiry
p158
F1484791288.89391
sVpath
p159
g9
sVhttpOnly
p160
I00
sVname
p161
VM62795-37246968
p162
sa(dp163
Vdomain
p164
V.easports.com
p165
sVsecure
p166
I00
sVvalue
p167
V242180630.40080194.1482130887.1482130891.1482130891.1
p168
sVexpiry
p169
I1545202918
sVpath
p170
g9
sVhttpOnly
p171
I00
sVname
p172
V__utma
p173
sa(dp174
Vdomain
p175
V.easports.com
p176
sVsecure
p177
I00
sVvalue
p178
Voif7ig
p179
sVexpiry
p180
I1489899600
sVpath
p181
g9
sVhttpOnly
p182
I00
sVname
p183
V_ceg.u
p184
sa(dp185
Vdomain
p186
V.s.thebrighttag.com
p187
sVsecure
p188
I00
sVvalue
p189
VtjtBI-pfM8yKYxifdDrdcBJbvaybVvKQZm9vQ8xtexE_L4JhCPxH9xp9ftkwJlFodCfdaGlWdndC_yC7z3NjZg
p190
sVexpiry
p191
F1484722891.385842
sVpath
p192
g9
sVhttpOnly
p193
I00
sVname
p194
Vbtv3.gcms
p195
sa(dp196
Vdomain
p197
V.easports.com
p198
sVsecure
p199
I00
sVvalue
p200
g6
sVexpiry
p201
I1482131487
sVpath
p202
g9
sVhttpOnly
p203
I00
sVname
p204
V_gat_ea_di
p205
sa(dp206
Vdomain
p207
V.easports.com
p208
sVsecure
p209
I00
sVvalue
p210
Voif7ig
p211
sVexpiry
p212
I1489899600
sVpath
p213
g9
sVhttpOnly
p214
I00
sVname
p215
V_ceg.s
p216
sa(dp217
Vdomain
p218
V.twitter.com
p219
sVsecure
p220
I00
sVvalue
p221
Vv1%3A148213089218371319
p222
sVexpiry
p223
F1545202892.213991
sVpath
p224
g9
sVhttpOnly
p225
I00
sVname
p226
Vguest_id
p227
sa(dp228
Vdomain
p229
V.easports.com
p230
sVsecure
p231
I00
sVvalue
p232
g6
sVexpiry
p233
I1482131518
sVpath
p234
g9
sVhttpOnly
p235
I00
sVname
p236
V__utmt_~1
p237
sa(dp238
Vdomain
p239
Vwww.easports.com
p240
sVsecure
p241
I00
sVvalue
p242
g6
sVexpiry
p243
F1482303686.433855
sVpath
p244
g9
sVhttpOnly
p245
I00
sVname
p246
Vff972645
p247
sa(dp248
Vdomain
p249
V.easports.com
p250
sVsecure
p251
I00
sVvalue
p252
g6
sVexpiry
p253
I1482131495
sVpath
p254
g9
sVhttpOnly
p255
I00
sVname
p256
V__utmt
p257
sa(dp258
Vdomain
p259
V.easports.com
p260
sVsecure
p261
I00
sVvalue
p262
VGA1.2.40080194.1482130887
p263
sVexpiry
p264
I1545202887
sVpath
p265
g9
sVhttpOnly
p266
I00
sVname
p267
V_ga
p268
sa(dp269
Vdomain
p270
Vwww.easports.com
p271
sVsecure
p272
I00
sVvalue
p273
V8fe41ccbc77bbf24f50877f825b638e0ec3178dd21e277007e593c1402b559cd
p274
sVexpiry
p275
F1482303686.434167
sVpath
p276
g9
sVhttpOnly
p277
I00
sVname
p278
VEASSSO
p279
sa(dp280
Vdomain
p281
V.easports.com
p282
sVsecure
p283
I00
sVvalue
p284
V%7B%7D
p285
sVexpiry
p286
I1797490888
sVpath
p287
g9
sVhttpOnly
p288
I00
sVname
p289
VoptimizelyBuckets
p290
sa(dp291
Vdomain
p292
V.ru4.com
p293
sVsecure
p294
I00
sVvalue
p295
VEL-00000001853397947
p296
sVexpiry
p297
F1529373691.07525
sVpath
p298
g9
sVhttpOnly
p299
I00
sVname
p300
VX1ID
p301
sa(dp302
Vdomain
p303
V.easports.com
p304
sVsecure
p305
I00
sVvalue
p306
Voeu1482130888665r0.79379053063105
p307
sVexpiry
p308
I1797490888
sVpath
p309
g9
sVhttpOnly
p310
I00
sVname
p311
VoptimizelyEndUserId
p312
sa(dp313
Vdomain
p314
V.easports.com
p315
sVsecure
p316
I00
sVvalue
p317
V%7B%22172174479%22%3A%22none%22%2C%22172202804%22%3A%22direct%22%2C%22172207507%22%3A%22false%22%2C%22172316047%22%3A%22gc%22%2C%22265568016%22%3A%22true%22%7D
p318
sVexpiry
p319
I1797490888
sVpath
p320
g9
sVhttpOnly
p321
I00
sVname
p322
VoptimizelySegments
p323
sa(dp324
Vdomain
p325
V.easports.com
p326
sVsecure
p327
I00
sVvalue
p328
Vv_id:015915e29020000cefc52acc7e950507800330700093c$_sn:1$_ss:1$_pn:1%3Bexp-session$_st:1482132686688$ses_id:1482130886688%3Bexp-session
p329
sVexpiry
p330
I1513666886
sVpath
p331
g9
sVhttpOnly
p332
I00
sVname
p333
Vutag_main
p334
sa(dp335
Vdomain
p336
V.ru4.com
p337
sVsecure
p338
I00
sVvalue
p339
g6
sVexpiry
p340
F1484791288.894209
sVpath
p341
g9
sVhttpOnly
p342
I00
sVname
p343
VM62795-37036736
p344
sa(dp345
Vdomain
p346
Vwww.easports.com
p347
sVsecure
p348
I00
sVvalue
p349
V62q49p3qt1bo2c66ndbkmn7an0
p350
sVexpiry
p351
F1482217282.917325
sVpath
p352
g9
sVhttpOnly
p353
I01
sVname
p354
VEASFC-WEB-SESSION
p355
sa(dp356
Vdomain
p357
Vwww.easports.com
p358
sVsecure
p359
I00
sVvalue
p360
Vus
p361
sVexpiry
p362
F1513666836.100707
sVpath
p363
g9
sVhttpOnly
p364
I00
sVname
p365
Vhl
p366
sa.